; Function Attrs: nounwind uwtable
define internal i32 @decode_frame(ptr noundef %0, ptr noundef %1, ptr noundef writeonly captures(none) %2, ptr noundef readonly captures(none) %3) #1 {
  %5 = getelementptr inbounds nuw i8, ptr %3, i64 32
  %6 = load i32, ptr %5, align 8, !tbaa !39
  %7 = getelementptr inbounds nuw i8, ptr %0, i64 32
  %8 = load ptr, ptr %7, align 8, !tbaa !4
  %.not68 = icmp eq i32 %6, 0
  br i1 %.not68, label %.critedge.thread, label %.lr.ph.preheader

.lr.ph.preheader:                                 ; preds = %4
  %9 = getelementptr inbounds nuw i8, ptr %3, i64 24
  %10 = load ptr, ptr %9, align 8, !tbaa !41
  br label %.lr.ph

.lr.ph:                                           ; preds = %.lr.ph.preheader, %12
  %.05771 = phi ptr [ %13, %12 ], [ %10, %.lr.ph.preheader ]
  %.05870 = phi i32 [ %14, %12 ], [ %6, %.lr.ph.preheader ]
  %.05969 = phi i32 [ %15, %12 ], [ 0, %.lr.ph.preheader ]
  %11 = load i8, ptr %.05771, align 1, !tbaa !42
  %.not63 = icmp eq i8 %11, 0
  br i1 %.not63, label %12, label %.critedge

12:                                               ; preds = %.lr.ph
  %13 = getelementptr inbounds nuw i8, ptr %.05771, i64 1
  %14 = add nsw i32 %.05870, -1
  %15 = add nuw nsw i32 %.05969, 1
  %.not = icmp eq i32 %14, 0
  br i1 %.not, label %.critedge.thread, label %.lr.ph, !llvm.loop !43

.critedge:                                        ; preds = %.lr.ph
  %16 = icmp slt i32 %.05870, 4
  br i1 %16, label %.critedge.thread, label %17

17:                                               ; preds = %.critedge
  %18 = load i32, ptr %.05771, align 1, !tbaa !42
  %19 = tail call i32 @llvm.bswap.i32(i32 %18)
  %.unshifted = xor i32 %19, 1413564160
  %20 = icmp ult i32 %.unshifted, 256
  br i1 %20, label %21, label %23

21:                                               ; preds = %17
  tail call void (ptr, i32, ptr, ...) @av_log(ptr noundef %0, i32 noundef 48, ptr noundef nonnull @.str.15) #14
  %22 = add nuw nsw i32 %.05870, %.05969
  br label %.critedge.thread

23:                                               ; preds = %17
  %24 = tail call i32 @avpriv_mpegaudio_decode_header(ptr noundef %8, i32 noundef %19) #14
  %25 = icmp slt i32 %24, 0
  br i1 %25, label %26, label %27

26:                                               ; preds = %23
  tail call void (ptr, i32, ptr, ...) @av_log(ptr noundef %0, i32 noundef 16, ptr noundef nonnull @.str.16) #14
  br label %.critedge.thread

27:                                               ; preds = %23
  %28 = icmp eq i32 %24, 1
  br i1 %28, label %29, label %30

29:                                               ; preds = %27
  store i32 -1, ptr %8, align 16, !tbaa !45
  br label %.critedge.thread

30:                                               ; preds = %27
  %31 = getelementptr inbounds nuw i8, ptr %0, i64 352
  tail call void @av_channel_layout_uninit(ptr noundef nonnull %31) #14
  %32 = getelementptr inbounds nuw i8, ptr %8, i64 24
  %33 = load i32, ptr %32, align 8, !tbaa !46
  %34 = icmp eq i32 %33, 1
  %spec.select = select i1 %34, i32 1, i32 2
  %spec.select79 = select i1 %34, i64 4, i64 3
  store i32 1, ptr %31, align 8, !tbaa !47
  %35 = getelementptr inbounds nuw i8, ptr %0, i64 356
  store i32 %spec.select, ptr %35, align 4, !tbaa !47
  %36 = getelementptr inbounds nuw i8, ptr %0, i64 360
  store i64 %spec.select79, ptr %36, align 8, !tbaa !42
  %37 = getelementptr inbounds nuw i8, ptr %0, i64 368
  store ptr null, ptr %37, align 8, !tbaa !48
  %38 = getelementptr inbounds nuw i8, ptr %0, i64 56
  %39 = load i64, ptr %38, align 8, !tbaa !49
  %.not64 = icmp eq i64 %39, 0
  br i1 %.not64, label %40, label %44

40:                                               ; preds = %30
  %41 = getelementptr inbounds nuw i8, ptr %8, i64 20
  %42 = load i32, ptr %41, align 4, !tbaa !50
  %43 = sext i32 %42 to i64
  store i64 %43, ptr %38, align 8, !tbaa !49
  br label %44

44:                                               ; preds = %40, %30
  %45 = load i32, ptr %8, align 16, !tbaa !45
  %46 = icmp slt i32 %45, 1
  br i1 %46, label %47, label %48

47:                                               ; preds = %44
  tail call void (ptr, i32, ptr, ...) @av_log(ptr noundef nonnull %0, i32 noundef 16, ptr noundef nonnull @.str.17) #14
  br label %.critedge.thread

48:                                               ; preds = %44
  %49 = icmp samesign ult i32 %45, %.05870
  br i1 %49, label %50, label %52

50:                                               ; preds = %48
  tail call void (ptr, i32, ptr, ...) @av_log(ptr noundef nonnull %0, i32 noundef 48, ptr noundef nonnull @.str.18) #14
  %51 = load i32, ptr %8, align 16, !tbaa !45
  br label %52

52:                                               ; preds = %48, %50
  %.1 = phi i32 [ %51, %50 ], [ %.05870, %48 ]
  %53 = getelementptr inbounds nuw i8, ptr %8, i64 33008
  store ptr %1, ptr %53, align 16, !tbaa !51
  %54 = tail call fastcc i32 @mp_decode_frame(ptr noundef nonnull %8, ptr noundef null, ptr noundef nonnull %.05771, i32 noundef %.1)
  %55 = icmp sgt i32 %54, -1
  br i1 %55, label %56, label %64

56:                                               ; preds = %52
  %57 = getelementptr inbounds nuw i8, ptr %0, i64 376
  %58 = load i32, ptr %57, align 8, !tbaa !52
  %59 = load ptr, ptr %53, align 16, !tbaa !51
  %60 = getelementptr inbounds nuw i8, ptr %59, i64 112
  store i32 %58, ptr %60, align 8, !tbaa !53
  store i32 1, ptr %2, align 4, !tbaa !47
  %61 = getelementptr inbounds nuw i8, ptr %8, i64 12
  %62 = load i32, ptr %61, align 4, !tbaa !58
  %63 = getelementptr inbounds nuw i8, ptr %0, i64 344
  store i32 %62, ptr %63, align 8, !tbaa !59
  br label %68

64:                                               ; preds = %52
  tail call void (ptr, i32, ptr, ...) @av_log(ptr noundef nonnull %0, i32 noundef 16, ptr noundef nonnull @.str.19) #14
  store i32 0, ptr %2, align 4, !tbaa !47
  %65 = load i32, ptr %5, align 8, !tbaa !39
  %66 = icmp eq i32 %.1, %65
  %67 = icmp ne i32 %54, -1094995529
  %or.cond = or i1 %67, %66
  br i1 %or.cond, label %.critedge.thread, label %68

68:                                               ; preds = %64, %56
  store i32 0, ptr %8, align 16, !tbaa !45
  %69 = add nsw i32 %.1, %.05969
  br label %.critedge.thread

.critedge.thread:                                 ; preds = %12, %4, %64, %.critedge, %68, %47, %29, %26, %21
  %.0 = phi i32 [ %22, %21 ], [ -1094995529, %26 ], [ -1094995529, %29 ], [ -1094995529, %47 ], [ %69, %68 ], [ -1094995529, %.critedge ], [ %54, %64 ], [ -1094995529, %4 ], [ -1094995529, %12 ]
  ret i32 %.0
}